; Function Attrs: mustprogress uwtable
define dso_local { i64, i8 } @_ZNK23cmStandardLevelResolver27CompileFeatureStandardLevelERKNSt7__cxx1112basic_stringIcSt11char_traitsIcESaIcEEES7_(ptr noundef nonnull readonly align 8 captures(none) dereferenceable(8) %0, ptr noundef nonnull align 8 dereferenceable(32) %1, ptr noundef nonnull align 8 dereferenceable(32) %2) local_unnamed_addr #4 align 2 {
  %4 = tail call fastcc ptr @_ZNKSt13unordered_mapINSt7__cxx1112basic_stringIcSt11char_traitsIcESaIcEEEN12_GLOBAL__N_121StandardLevelComputerESt4hashIS5_ESt8equal_toIS5_ESaISt4pairIKS5_S7_EEE4findERSD_(ptr noundef nonnull align 8 dereferenceable(32) %1)
  %5 = icmp eq ptr %4, null
  br i1 %5, label %12, label %6

6:                                                ; preds = %3
  %7 = getelementptr inbounds nuw i8, ptr %4, i64 40
  %8 = load ptr, ptr %0, align 8
  %9 = tail call fastcc { i64, i8 } @_ZNK12_GLOBAL__N_121StandardLevelComputer27CompileFeatureStandardLevelEP10cmMakefileRKNSt7__cxx1112basic_stringIcSt11char_traitsIcESaIcEEE(ptr noundef nonnull align 8 dereferenceable(80) %7, ptr noundef %8, ptr noundef nonnull align 8 dereferenceable(32) %2)
  %10 = extractvalue { i64, i8 } %9, 0
  %11 = extractvalue { i64, i8 } %9, 1
  br label %12

12:                                               ; preds = %3, %6
  %.sroa.06.0 = phi i64 [ %10, %6 ], [ undef, %3 ]
  %.sroa.2.0 = phi i8 [ %11, %6 ], [ 0, %3 ]
  %.fca.0.insert = insertvalue { i64, i8 } poison, i64 %.sroa.06.0, 0
  %.fca.1.insert = insertvalue { i64, i8 } %.fca.0.insert, i8 %.sroa.2.0, 1
  ret { i64, i8 } %.fca.1.insert
}